target datalayout = "e-m:e-p270:32:32-p271:32:32-p272:64:64-i64:64-i128:128-f80:128-n8:16:32:64-S128"
target triple = "x86_64-pc-linux-gnu"

%"class.clang::OMPClause" = type { %"class.clang::SourceLocation", %"class.clang::SourceLocation", i32 }
%"class.clang::SourceLocation" = type { i32 }
%"class.clang::OMPUsesAllocatorsClause" = type { %"class.clang::OMPClause", %"class.clang::SourceLocation", i32, [4 x i8] }
%"class.llvm::ArrayRef.578" = type { ptr, i64 }
%"struct.clang::OMPUsesAllocatorsClause::Data" = type { ptr, ptr, %"class.clang::SourceLocation", %"class.clang::SourceLocation" }

; Function Attrs: mustprogress nounwind uwtable
define linkonce_odr hidden noundef i32 @_ZNK5clang23OMPUsesAllocatorsClause18numTrailingObjectsEN4llvm25trailing_objects_internal19TrailingObjectsBase13OverloadTokenIPNS_4ExprEEE(ptr noundef nonnull align 8 dereferenceable(24) %0) #0 comdat align 2 {
  %2 = alloca ptr, align 8
  store ptr %0, ptr %2, align 8
  %3 = load ptr, ptr %2, align 8
  %4 = getelementptr inbounds nuw %"class.clang::OMPUsesAllocatorsClause", ptr %3, i32 0, i32 2
  %5 = load i32, ptr %4, align 8
  %6 = mul i32 %5, 2
  ret i32 %6
}

; Function Attrs: mustprogress nounwind uwtable
define linkonce_odr hidden noundef i64 @_ZN4llvm15TrailingObjectsIN5clang23OMPUsesAllocatorsClauseEJPNS1_4ExprENS1_14SourceLocationEEE22callNumTrailingObjectsIS4_EEmPKS2_NS_25trailing_objects_internal19TrailingObjectsBase13OverloadTokenIT_EE(ptr noundef %0) #0 comdat align 2 {
  %2 = alloca ptr, align 8
  store ptr %0, ptr %2, align 8
  %3 = load ptr, ptr %2, align 8
  %4 = call noundef i32 @_ZNK5clang23OMPUsesAllocatorsClause18numTrailingObjectsEN4llvm25trailing_objects_internal19TrailingObjectsBase13OverloadTokenIPNS_4ExprEEE(ptr noundef nonnull align 8 dereferenceable(24) %3)
  %5 = zext i32 %4 to i64
  ret i64 %5
}

; Function Attrs: mustprogress nounwind uwtable
define linkonce_odr hidden noundef i64 @_ZN4llvm15TrailingObjectsIN5clang23OMPUsesAllocatorsClauseEJPNS1_4ExprENS1_14SourceLocationEEE22callNumTrailingObjectsEPKS2_NS_25trailing_objects_internal19TrailingObjectsBase13OverloadTokenIS2_EE(ptr noundef %0) #0 comdat align 2 {
  %2 = alloca ptr, align 8
  store ptr %0, ptr %2, align 8
  ret i64 1
}

; Function Attrs: mustprogress nounwind uwtable
define linkonce_odr hidden noundef ptr @_ZN4llvm15TrailingObjectsIN5clang23OMPUsesAllocatorsClauseEJPNS1_4ExprENS1_14SourceLocationEEE22getTrailingObjectsImplEPS2_NS_25trailing_objects_internal19TrailingObjectsBase13OverloadTokenIS2_EE(ptr noundef %0) #0 comdat align 2 {
  %2 = alloca ptr, align 8
  store ptr %0, ptr %2, align 8
  %3 = load ptr, ptr %2, align 8
  ret ptr %3
}

; Function Attrs: mustprogress nounwind uwtable
define linkonce_odr hidden noundef ptr @_ZN4llvm25trailing_objects_internal19TrailingObjectsImplILi8EN5clang23OMPUsesAllocatorsClauseENS_15TrailingObjectsIS3_JPNS2_4ExprENS2_14SourceLocationEEEES6_JS7_EE22getTrailingObjectsImplEPS3_NS0_19TrailingObjectsBase13OverloadTokenIS7_EE(ptr noundef %0) #0 comdat align 2 {
  %2 = alloca ptr, align 8
  %3 = alloca ptr, align 8
  store ptr %0, ptr %2, align 8
  %4 = load ptr, ptr %2, align 8
  %5 = call noundef ptr @_ZN4llvm25trailing_objects_internal19TrailingObjectsImplILi8EN5clang23OMPUsesAllocatorsClauseENS_15TrailingObjectsIS3_JPNS2_4ExprENS2_14SourceLocationEEEES3_JS6_S7_EE22getTrailingObjectsImplEPS3_NS0_19TrailingObjectsBase13OverloadTokenIS6_EE(ptr noundef %4)
  %6 = load ptr, ptr %2, align 8
  %7 = call noundef i64 @_ZN4llvm15TrailingObjectsIN5clang23OMPUsesAllocatorsClauseEJPNS1_4ExprENS1_14SourceLocationEEE22callNumTrailingObjectsIS4_EEmPKS2_NS_25trailing_objects_internal19TrailingObjectsBase13OverloadTokenIT_EE(ptr noundef %6)
  %8 = getelementptr inbounds ptr, ptr %5, i64 %7
  store ptr %8, ptr %3, align 8
  %9 = load ptr, ptr %3, align 8
  ret ptr %9
}

; Function Attrs: mustprogress nounwind uwtable
define linkonce_odr hidden noundef ptr @_ZN4llvm25trailing_objects_internal19TrailingObjectsImplILi8EN5clang23OMPUsesAllocatorsClauseENS_15TrailingObjectsIS3_JPNS2_4ExprENS2_14SourceLocationEEEES3_JS6_S7_EE22getTrailingObjectsImplEPS3_NS0_19TrailingObjectsBase13OverloadTokenIS6_EE(ptr noundef %0) #0 comdat align 2 {
  %2 = alloca ptr, align 8
  %3 = alloca ptr, align 8
  store ptr %0, ptr %2, align 8
  %4 = load ptr, ptr %2, align 8
  %5 = call noundef ptr @_ZN4llvm15TrailingObjectsIN5clang23OMPUsesAllocatorsClauseEJPNS1_4ExprENS1_14SourceLocationEEE22getTrailingObjectsImplEPS2_NS_25trailing_objects_internal19TrailingObjectsBase13OverloadTokenIS2_EE(ptr noundef %4)
  %6 = load ptr, ptr %2, align 8
  %7 = call noundef i64 @_ZN4llvm15TrailingObjectsIN5clang23OMPUsesAllocatorsClauseEJPNS1_4ExprENS1_14SourceLocationEEE22callNumTrailingObjectsEPKS2_NS_25trailing_objects_internal19TrailingObjectsBase13OverloadTokenIS2_EE(ptr noundef %6)
  %8 = getelementptr inbounds %"class.clang::OMPUsesAllocatorsClause", ptr %5, i64 %7
  store ptr %8, ptr %3, align 8
  %9 = load ptr, ptr %3, align 8
  ret ptr %9
}

; Function Attrs: mustprogress nounwind uwtable
define linkonce_odr hidden void @_ZN4llvm15TrailingObjectsIN5clang23OMPUsesAllocatorsClauseEJPNS1_4ExprENS1_14SourceLocationEEE31verifyTrailingObjectsAssertionsEv() #0 comdat align 2 {
  ret void
}

; Function Attrs: mustprogress nounwind uwtable
define linkonce_odr hidden noundef ptr @_ZN4llvm15TrailingObjectsIN5clang23OMPUsesAllocatorsClauseEJPNS1_4ExprENS1_14SourceLocationEEE18getTrailingObjectsIS5_EEPT_v(ptr noundef nonnull align 8 dereferenceable(8) %0) #0 comdat align 2 {
  %2 = alloca ptr, align 8
  store ptr %0, ptr %2, align 8
  %3 = load ptr, ptr %2, align 8
  call void @_ZN4llvm15TrailingObjectsIN5clang23OMPUsesAllocatorsClauseEJPNS1_4ExprENS1_14SourceLocationEEE31verifyTrailingObjectsAssertionsEv()
  %4 = call noundef ptr @_ZN4llvm25trailing_objects_internal19TrailingObjectsImplILi8EN5clang23OMPUsesAllocatorsClauseENS_15TrailingObjectsIS3_JPNS2_4ExprENS2_14SourceLocationEEEES6_JS7_EE22getTrailingObjectsImplEPS3_NS0_19TrailingObjectsBase13OverloadTokenIS7_EE(ptr noundef %3)
  ret ptr %4
}

; Function Attrs: mustprogress nounwind uwtable
define linkonce_odr hidden noundef ptr @_ZN4llvm15TrailingObjectsIN5clang23OMPUsesAllocatorsClauseEJPNS1_4ExprENS1_14SourceLocationEEE18getTrailingObjectsIS4_EEPT_v(ptr noundef nonnull align 8 dereferenceable(8) %0) #0 comdat align 2 {
  %2 = alloca ptr, align 8
  store ptr %0, ptr %2, align 8
  %3 = load ptr, ptr %2, align 8
  call void @_ZN4llvm15TrailingObjectsIN5clang23OMPUsesAllocatorsClauseEJPNS1_4ExprENS1_14SourceLocationEEE31verifyTrailingObjectsAssertionsEv()
  %4 = call noundef ptr @_ZN4llvm25trailing_objects_internal19TrailingObjectsImplILi8EN5clang23OMPUsesAllocatorsClauseENS_15TrailingObjectsIS3_JPNS2_4ExprENS2_14SourceLocationEEEES3_JS6_S7_EE22getTrailingObjectsImplEPS3_NS0_19TrailingObjectsBase13OverloadTokenIS6_EE(ptr noundef %3)
  ret ptr %4
}

; Function Attrs: mustprogress nounwind uwtable
define linkonce_odr hidden noundef nonnull align 8 dereferenceable(24) ptr @_ZNK4llvm8ArrayRefIN5clang23OMPUsesAllocatorsClause4DataEEixEm(ptr noundef nonnull align 8 dereferenceable(16) %0, i64 noundef %1) #0 comdat align 2 {
  %3 = alloca ptr, align 8
  %4 = alloca i64, align 8
  store ptr %0, ptr %3, align 8
  store i64 %1, ptr %4, align 8
  %5 = load ptr, ptr %3, align 8
  %6 = getelementptr inbounds nuw %"class.llvm::ArrayRef.578", ptr %5, i32 0, i32 0
  %7 = load ptr, ptr %6, align 8
  %8 = load i64, ptr %4, align 8
  %9 = getelementptr inbounds %"struct.clang::OMPUsesAllocatorsClause::Data", ptr %7, i64 %8
  ret ptr %9
}

; Function Attrs: mustprogress nounwind uwtable
define linkonce_odr hidden noundef i64 @_ZNK4llvm8ArrayRefIN5clang23OMPUsesAllocatorsClause4DataEE4sizeEv(ptr noundef nonnull align 8 dereferenceable(16) %0) #0 comdat align 2 {
  %2 = alloca ptr, align 8
  store ptr %0, ptr %2, align 8
  %3 = load ptr, ptr %2, align 8
  %4 = getelementptr inbounds nuw %"class.llvm::ArrayRef.578", ptr %3, i32 0, i32 1
  %5 = load i64, ptr %4, align 8
  ret i64 %5
}

; Function Attrs: mustprogress nounwind uwtable
define dso_local void @_ZN5clang23OMPUsesAllocatorsClause17setAllocatorsDataEN4llvm8ArrayRefINS0_4DataEEE(ptr noundef nonnull align 8 dereferenceable(24) %0, ptr %1, i64 %2) #0 align 2 {
  %4 = alloca %"class.llvm::ArrayRef.578", align 8
  %5 = alloca ptr, align 8
  %6 = alloca i32, align 4
  %7 = alloca i32, align 4
  %8 = alloca ptr, align 8
  %9 = getelementptr inbounds nuw { ptr, i64 }, ptr %4, i32 0, i32 0
  store ptr %1, ptr %9, align 8
  %10 = getelementptr inbounds nuw { ptr, i64 }, ptr %4, i32 0, i32 1
  store i64 %2, ptr %10, align 8
  store ptr %0, ptr %5, align 8
  %11 = load ptr, ptr %5, align 8
  store i32 0, ptr %6, align 4
  %12 = call noundef i64 @_ZNK4llvm8ArrayRefIN5clang23OMPUsesAllocatorsClause4DataEE4sizeEv(ptr noundef nonnull align 8 dereferenceable(16) %4)
  %13 = trunc i64 %12 to i32
  store i32 %13, ptr %7, align 4
  br label %14

14:                                               ; preds = %56, %3
  %15 = load i32, ptr %6, align 4
  %16 = load i32, ptr %7, align 4
  %17 = icmp ult i32 %15, %16
  br i1 %17, label %18, label %59

18:                                               ; preds = %14
  %19 = load i32, ptr %6, align 4
  %20 = zext i32 %19 to i64
  %21 = call noundef nonnull align 8 dereferenceable(24) ptr @_ZNK4llvm8ArrayRefIN5clang23OMPUsesAllocatorsClause4DataEEixEm(ptr noundef nonnull align 8 dereferenceable(16) %4, i64 noundef %20)
  store ptr %21, ptr %8, align 8
  %22 = load ptr, ptr %8, align 8
  %23 = getelementptr inbounds nuw %"struct.clang::OMPUsesAllocatorsClause::Data", ptr %22, i32 0, i32 0
  %24 = load ptr, ptr %23, align 8
  %25 = call noundef ptr @_ZN4llvm15TrailingObjectsIN5clang23OMPUsesAllocatorsClauseEJPNS1_4ExprENS1_14SourceLocationEEE18getTrailingObjectsIS4_EEPT_v(ptr noundef nonnull align 8 dereferenceable(8) %11)
  %26 = load i32, ptr %6, align 4
  %27 = mul i32 %26, 2
  %28 = add i32 %27, 0
  %29 = zext i32 %28 to i64
  %30 = getelementptr inbounds ptr, ptr %25, i64 %29
  store ptr %24, ptr %30, align 8
  %31 = load ptr, ptr %8, align 8
  %32 = getelementptr inbounds nuw %"struct.clang::OMPUsesAllocatorsClause::Data", ptr %31, i32 0, i32 1
  %33 = load ptr, ptr %32, align 8
  %34 = call noundef ptr @_ZN4llvm15TrailingObjectsIN5clang23OMPUsesAllocatorsClauseEJPNS1_4ExprENS1_14SourceLocationEEE18getTrailingObjectsIS4_EEPT_v(ptr noundef nonnull align 8 dereferenceable(8) %11)
  %35 = load i32, ptr %6, align 4
  %36 = mul i32 %35, 2
  %37 = add i32 %36, 1
  %38 = zext i32 %37 to i64
  %39 = getelementptr inbounds ptr, ptr %34, i64 %38
  store ptr %33, ptr %39, align 8
  %40 = load ptr, ptr %8, align 8
  %41 = getelementptr inbounds nuw %"struct.clang::OMPUsesAllocatorsClause::Data", ptr %40, i32 0, i32 2
  %42 = call noundef ptr @_ZN4llvm15TrailingObjectsIN5clang23OMPUsesAllocatorsClauseEJPNS1_4ExprENS1_14SourceLocationEEE18getTrailingObjectsIS5_EEPT_v(ptr noundef nonnull align 8 dereferenceable(8) %11)
  %43 = load i32, ptr %6, align 4
  %44 = mul i32 %43, 2
  %45 = add i32 %44, 0
  %46 = zext i32 %45 to i64
  %47 = getelementptr inbounds %"class.clang::SourceLocation", ptr %42, i64 %46
  call void @llvm.memcpy.p0.p0.i64(ptr align 4 %47, ptr align 8 %41, i64 4, i1 false)
  %48 = load ptr, ptr %8, align 8
  %49 = getelementptr inbounds nuw %"struct.clang::OMPUsesAllocatorsClause::Data", ptr %48, i32 0, i32 3
  %50 = call noundef ptr @_ZN4llvm15TrailingObjectsIN5clang23OMPUsesAllocatorsClauseEJPNS1_4ExprENS1_14SourceLocationEEE18getTrailingObjectsIS5_EEPT_v(ptr noundef nonnull align 8 dereferenceable(8) %11)
  %51 = load i32, ptr %6, align 4
  %52 = mul i32 %51, 2
  %53 = add i32 %52, 1
  %54 = zext i32 %53 to i64
  %55 = getelementptr inbounds %"class.clang::SourceLocation", ptr %50, i64 %54
  call void @llvm.memcpy.p0.p0.i64(ptr align 4 %55, ptr align 4 %49, i64 4, i1 false)
  br label %56

56:                                               ; preds = %18
  %57 = load i32, ptr %6, align 4
  %58 = add i32 %57, 1
  store i32 %58, ptr %6, align 4
  br label %14, !llvm.loop !15

59:                                               ; preds = %14
  ret void
}