; Function Attrs: mustprogress nofree norecurse nosync nounwind memory(argmem: readwrite) uwtable
define dso_local void @_ZN5clang23OMPUsesAllocatorsClause17setAllocatorsDataEN4llvm8ArrayRefINS0_4DataEEE(ptr noundef nonnull align 8 captures(none) dereferenceable(24) %0, ptr readonly captures(none) %1, i64 %2) local_unnamed_addr #9 align 2 {
  %4 = and i64 %2, 4294967295
  %.not = icmp eq i64 %4, 0
  br i1 %.not, label %._crit_edge, label %.lr.ph

.lr.ph:                                           ; preds = %3
  %5 = getelementptr inbounds nuw i8, ptr %0, i64 24
  %6 = getelementptr inbounds nuw i8, ptr %0, i64 16
  %7 = load i32, ptr %6, align 8
  %8 = shl i32 %7, 1
  %9 = zext i32 %8 to i64
  %10 = getelementptr inbounds nuw ptr, ptr %5, i64 %9
  %wide.trip.count = and i64 %2, 4294967295
  br label %11

11:                                               ; preds = %.lr.ph, %11
  %indvars.iv = phi i64 [ 0, %.lr.ph ], [ %indvars.iv.next, %11 ]
  %12 = getelementptr inbounds nuw %"struct.clang::OMPUsesAllocatorsClause::Data", ptr %1, i64 %indvars.iv
  %13 = load ptr, ptr %12, align 8
  %14 = trunc nuw i64 %indvars.iv to i32
  %15 = shl i32 %14, 1
  %16 = zext i32 %15 to i64
  %17 = getelementptr inbounds nuw ptr, ptr %5, i64 %16
  store ptr %13, ptr %17, align 8
  %18 = getelementptr inbounds nuw i8, ptr %12, i64 8
  %19 = load ptr, ptr %18, align 8
  %20 = or disjoint i32 %15, 1
  %21 = zext i32 %20 to i64
  %22 = getelementptr inbounds nuw ptr, ptr %5, i64 %21
  store ptr %19, ptr %22, align 8
  %23 = getelementptr inbounds nuw i8, ptr %12, i64 16
  %24 = getelementptr inbounds nuw %"class.clang::SourceLocation", ptr %10, i64 %16
  %25 = load i32, ptr %23, align 8
  store i32 %25, ptr %24, align 8
  %26 = getelementptr inbounds nuw i8, ptr %12, i64 20
  %27 = getelementptr inbounds nuw %"class.clang::SourceLocation", ptr %10, i64 %21
  %28 = load i32, ptr %26, align 4
  store i32 %28, ptr %27, align 4
  %indvars.iv.next = add nuw nsw i64 %indvars.iv, 1
  %exitcond.not = icmp eq i64 %indvars.iv.next, %wide.trip.count
  br i1 %exitcond.not, label %._crit_edge, label %11, !llvm.loop !205

._crit_edge:                                      ; preds = %11, %3
  ret void
}